; Function Attrs: nofree norecurse nosync nounwind memory(argmem: read) uwtable
define internal range(i32 -65536, 65535) i32 @UnreservedPLKeywords_hash_func(ptr noundef readonly captures(none) %0, i64 noundef %1) #10 {
  %.not11 = icmp eq i64 %1, 0
  br i1 %.not11, label %._crit_edge, label %.lr.ph

.lr.ph:                                           ; preds = %2, %.lr.ph
  %.015 = phi i64 [ %3, %.lr.ph ], [ %1, %2 ]
  %.0814 = phi i32 [ %11, %.lr.ph ], [ 1, %2 ]
  %.0913 = phi i32 [ %9, %.lr.ph ], [ 0, %2 ]
  %.01012 = phi ptr [ %4, %.lr.ph ], [ %0, %2 ]
  %3 = add i64 %.015, -1
  %4 = getelementptr inbounds nuw i8, ptr %.01012, i64 1
  %5 = load i8, ptr %.01012, align 1
  %6 = or i8 %5, 32
  %7 = mul i32 %.0913, 257
  %8 = zext i8 %6 to i32
  %9 = add i32 %7, %8
  %10 = mul i32 %.0814, 8191
  %11 = add i32 %10, %8
  %.not = icmp eq i64 %3, 0
  br i1 %.not, label %._crit_edge.loopexit, label %.lr.ph, !llvm.loop !8

._crit_edge.loopexit:                             ; preds = %.lr.ph
  %12 = urem i32 %9, 167
  %13 = zext nneg i32 %12 to i64
  %14 = urem i32 %11, 167
  %15 = zext nneg i32 %14 to i64
  br label %._crit_edge

._crit_edge:                                      ; preds = %._crit_edge.loopexit, %2
  %.09.lcssa = phi i64 [ 0, %2 ], [ %13, %._crit_edge.loopexit ]
  %.08.lcssa = phi i64 [ 1, %2 ], [ %15, %._crit_edge.loopexit ]
  %16 = getelementptr inbounds nuw [167 x i16], ptr @UnreservedPLKeywords_hash_func.h, i64 0, i64 %.09.lcssa
  %17 = load i16, ptr %16, align 2
  %18 = sext i16 %17 to i32
  %19 = getelementptr inbounds nuw [167 x i16], ptr @UnreservedPLKeywords_hash_func.h, i64 0, i64 %.08.lcssa
  %20 = load i16, ptr %19, align 2
  %21 = sext i16 %20 to i32
  %22 = add nsw i32 %21, %18
  ret i32 %22
}